target datalayout = "e-m:e-p270:32:32-p271:32:32-p272:64:64-i64:64-i128:128-f80:128-n8:16:32:64-S128"
target triple = "x86_64-pc-linux-gnu"

%"struct.open_spiel::y_game::Move" = type { i8, i8, i16 }

; Function Attrs: mustprogress nounwind uwtable
define linkonce_odr noundef zeroext i1 @_ZNK10open_spiel6y_game4Move7OnBoardEv(ptr noundef nonnull align 2 dereferenceable(4) %0) #4 comdat align 2 {
  %2 = alloca ptr, align 8
  store ptr %0, ptr %2, align 8
  %3 = load ptr, ptr %2, align 8
  %4 = getelementptr inbounds nuw %"struct.open_spiel::y_game::Move", ptr %3, i32 0, i32 2
  %5 = load i16, ptr %4, align 2
  %6 = sext i16 %5 to i32
  %7 = icmp sge i32 %6, 0
  ret i1 %7
}

; Function Attrs: mustprogress uwtable
define noundef i32 @_ZNK10open_spiel6y_game4Move4EdgeEi(ptr noundef nonnull align 2 dereferenceable(4) %0, i32 noundef %1) #5 align 2 {
  %3 = alloca i32, align 4
  %4 = alloca ptr, align 8
  %5 = alloca i32, align 4
  store ptr %0, ptr %4, align 8
  store i32 %1, ptr %5, align 4
  %6 = load ptr, ptr %4, align 8
  %7 = call noundef zeroext i1 @_ZNK10open_spiel6y_game4Move7OnBoardEv(ptr noundef nonnull align 2 dereferenceable(4) %6)
  br i1 %7, label %9, label %8

8:                                                ; preds = %2
  store i32 0, ptr %3, align 4
  br label %33

9:                                                ; preds = %2
  %10 = getelementptr inbounds nuw %"struct.open_spiel::y_game::Move", ptr %6, i32 0, i32 0
  %11 = load i8, ptr %10, align 2
  %12 = sext i8 %11 to i32
  %13 = icmp eq i32 %12, 0
  %14 = select i1 %13, i32 1, i32 0
  %15 = getelementptr inbounds nuw %"struct.open_spiel::y_game::Move", ptr %6, i32 0, i32 1
  %16 = load i8, ptr %15, align 1
  %17 = sext i8 %16 to i32
  %18 = icmp eq i32 %17, 0
  %19 = select i1 %18, i32 2, i32 0
  %20 = or i32 %14, %19
  %21 = getelementptr inbounds nuw %"struct.open_spiel::y_game::Move", ptr %6, i32 0, i32 0
  %22 = load i8, ptr %21, align 2
  %23 = sext i8 %22 to i32
  %24 = getelementptr inbounds nuw %"struct.open_spiel::y_game::Move", ptr %6, i32 0, i32 1
  %25 = load i8, ptr %24, align 1
  %26 = sext i8 %25 to i32
  %27 = add nsw i32 %23, %26
  %28 = load i32, ptr %5, align 4
  %29 = sub nsw i32 %28, 1
  %30 = icmp eq i32 %27, %29
  %31 = select i1 %30, i32 4, i32 0
  %32 = or i32 %20, %31
  store i32 %32, ptr %3, align 4
  br label %33

33:                                               ; preds = %9, %8
  %34 = load i32, ptr %3, align 4
  ret i32 %34
}