; Function Attrs: mustprogress nofree norecurse nosync nounwind willreturn memory(argmem: read) uwtable
define noundef range(i32 0, 8) i32 @_ZNK10open_spiel6y_game4Move4EdgeEi(ptr nocapture noundef nonnull readonly align 2 dereferenceable(4) %0, i32 noundef %1) local_unnamed_addr #6 align 2 {
  %3 = getelementptr inbounds nuw i8, ptr %0, i64 2
  %4 = load i16, ptr %3, align 2
  %5 = icmp sgt i16 %4, -1
  br i1 %5, label %6, label %22

6:                                                ; preds = %2
  %7 = load i8, ptr %0, align 2
  %8 = sext i8 %7 to i32
  %9 = icmp eq i8 %7, 0
  %10 = zext i1 %9 to i32
  %11 = getelementptr inbounds nuw i8, ptr %0, i64 1
  %12 = load i8, ptr %11, align 1
  %13 = sext i8 %12 to i32
  %14 = icmp eq i8 %12, 0
  %15 = select i1 %14, i32 2, i32 0
  %16 = or disjoint i32 %15, %10
  %17 = add nsw i32 %13, %8
  %18 = add nsw i32 %1, -1
  %19 = icmp eq i32 %17, %18
  %20 = select i1 %19, i32 4, i32 0
  %21 = or disjoint i32 %16, %20
  br label %22

22:                                               ; preds = %2, %6
  %.0 = phi i32 [ %21, %6 ], [ 0, %2 ]
  ret i32 %.0
}